target datalayout = "e-m:e-p270:32:32-p271:32:32-p272:64:64-i64:64-i128:128-f80:128-n8:16:32:64-S128"
target triple = "x86_64-pc-linux-gnu"

; Function Attrs: nounwind uwtable
define internal i32 @DecodeTimezone(ptr noundef %0, ptr noundef %1) #0 {
  %3 = alloca i32, align 4
  %4 = alloca ptr, align 8
  %5 = alloca ptr, align 8
  %6 = alloca i32, align 4
  %7 = alloca i32, align 4
  %8 = alloca i32, align 4
  %9 = alloca ptr, align 8
  %10 = alloca i32, align 4
  %11 = alloca i32, align 4
  store ptr %0, ptr %4, align 8
  store ptr %1, ptr %5, align 8
  call void @llvm.lifetime.start.p0(i64 4, ptr %6) #9
  call void @llvm.lifetime.start.p0(i64 4, ptr %7) #9
  call void @llvm.lifetime.start.p0(i64 4, ptr %8) #9
  call void @llvm.lifetime.start.p0(i64 8, ptr %9) #9
  call void @llvm.lifetime.start.p0(i64 4, ptr %10) #9
  %12 = load ptr, ptr %4, align 8
  %13 = getelementptr inbounds i8, ptr %12, i64 1
  %14 = call i32 @strtoint(ptr noundef %13, ptr noundef %9, i32 noundef 10)
  store i32 %14, ptr %7, align 4
  %15 = load ptr, ptr %9, align 8
  %16 = load i8, ptr %15, align 1
  %17 = sext i8 %16 to i32
  %18 = icmp eq i32 %17, 58
  br i1 %18, label %19, label %23

19:                                               ; preds = %2
  %20 = load ptr, ptr %9, align 8
  %21 = getelementptr inbounds i8, ptr %20, i64 1
  %22 = call i32 @strtoint(ptr noundef %21, ptr noundef %9, i32 noundef 10)
  store i32 %22, ptr %8, align 4
  br label %64

23:                                               ; preds = %2
  %24 = load ptr, ptr %9, align 8
  %25 = load i8, ptr %24, align 1
  %26 = sext i8 %25 to i32
  %27 = icmp eq i32 %26, 0
  br i1 %27, label %28, label %62

28:                                               ; preds = %23
  %29 = load ptr, ptr %4, align 8
  %30 = call i64 @strlen(ptr noundef %29) #10
  %31 = trunc i64 %30 to i32
  store i32 %31, ptr %10, align 4
  %32 = icmp sgt i32 %31, 3
  br i1 %32, label %33, label %62

33:                                               ; preds = %28
  %34 = load ptr, ptr %4, align 8
  %35 = load i32, ptr %10, align 4
  %36 = sext i32 %35 to i64
  %37 = getelementptr inbounds i8, ptr %34, i64 %36
  %38 = getelementptr inbounds i8, ptr %37, i64 -2
  %39 = call i32 @strtoint(ptr noundef %38, ptr noundef %9, i32 noundef 10)
  store i32 %39, ptr %8, align 4
  %40 = load i32, ptr %8, align 4
  %41 = icmp slt i32 %40, 0
  br i1 %41, label %45, label %42

42:                                               ; preds = %33
  %43 = load i32, ptr %8, align 4
  %44 = icmp sge i32 %43, 60
  br i1 %44, label %45, label %46

45:                                               ; preds = %42, %33
  store i32 -1, ptr %3, align 4
  store i32 1, ptr %11, align 4
  br label %86

46:                                               ; preds = %42
  %47 = load ptr, ptr %4, align 8
  %48 = load i32, ptr %10, align 4
  %49 = sext i32 %48 to i64
  %50 = getelementptr inbounds i8, ptr %47, i64 %49
  %51 = getelementptr inbounds i8, ptr %50, i64 -2
  store i8 0, ptr %51, align 1
  %52 = load ptr, ptr %4, align 8
  %53 = getelementptr inbounds i8, ptr %52, i64 1
  %54 = call i32 @strtoint(ptr noundef %53, ptr noundef %9, i32 noundef 10)
  store i32 %54, ptr %7, align 4
  %55 = load i32, ptr %7, align 4
  %56 = icmp slt i32 %55, 0
  br i1 %56, label %60, label %57

57:                                               ; preds = %46
  %58 = load i32, ptr %7, align 4
  %59 = icmp sgt i32 %58, 13
  br i1 %59, label %60, label %61

60:                                               ; preds = %57, %46
  store i32 -1, ptr %3, align 4
  store i32 1, ptr %11, align 4
  br label %86

61:                                               ; preds = %57
  br label %63

62:                                               ; preds = %28, %23
  store i32 0, ptr %8, align 4
  br label %63

63:                                               ; preds = %62, %61
  br label %64

64:                                               ; preds = %63, %19
  %65 = load i32, ptr %7, align 4
  %66 = mul i32 %65, 60
  %67 = load i32, ptr %8, align 4
  %68 = add i32 %66, %67
  %69 = mul i32 %68, 60
  store i32 %69, ptr %6, align 4
  %70 = load ptr, ptr %4, align 8
  %71 = load i8, ptr %70, align 1
  %72 = sext i8 %71 to i32
  %73 = icmp eq i32 %72, 45
  br i1 %73, label %74, label %77

74:                                               ; preds = %64
  %75 = load i32, ptr %6, align 4
  %76 = sub i32 0, %75
  store i32 %76, ptr %6, align 4
  br label %77

77:                                               ; preds = %74, %64
  %78 = load i32, ptr %6, align 4
  %79 = sub i32 0, %78
  %80 = load ptr, ptr %5, align 8
  store i32 %79, ptr %80, align 4
  %81 = load ptr, ptr %9, align 8
  %82 = load i8, ptr %81, align 1
  %83 = sext i8 %82 to i32
  %84 = icmp ne i32 %83, 0
  %85 = zext i1 %84 to i32
  store i32 %85, ptr %3, align 4
  store i32 1, ptr %11, align 4
  br label %86

86:                                               ; preds = %77, %60, %45
  call void @llvm.lifetime.end.p0(i64 4, ptr %10) #9
  call void @llvm.lifetime.end.p0(i64 8, ptr %9) #9
  call void @llvm.lifetime.end.p0(i64 4, ptr %8) #9
  call void @llvm.lifetime.end.p0(i64 4, ptr %7) #9
  call void @llvm.lifetime.end.p0(i64 4, ptr %6) #9
  %87 = load i32, ptr %3, align 4
  ret i32 %87
}