; Function Attrs: nounwind uwtable
define internal fastcc range(i32 -1, 2) i32 @DecodeTimezone(ptr noundef %0, ptr noundef writeonly captures(none) %1) unnamed_addr #5 {
  %3 = alloca ptr, align 8
  call void @llvm.lifetime.start.p0(i64 8, ptr nonnull %3) #17
  %4 = getelementptr inbounds nuw i8, ptr %0, i64 1
  %5 = call i32 @strtoint(ptr noundef nonnull %4, ptr noundef nonnull %3, i32 noundef 10) #17
  %6 = load ptr, ptr %3, align 8
  %7 = load i8, ptr %6, align 1
  switch i8 %7, label %22 [
    i8 58, label %8
    i8 0, label %11
  ]

8:                                                ; preds = %2
  %9 = getelementptr inbounds nuw i8, ptr %6, i64 1
  %10 = call i32 @strtoint(ptr noundef nonnull %9, ptr noundef nonnull %3, i32 noundef 10) #17
  br label %22

11:                                               ; preds = %2
  %12 = call i64 @strlen(ptr noundef nonnull dereferenceable(1) %0) #16
  %13 = trunc i64 %12 to i32
  %14 = icmp sgt i32 %13, 3
  br i1 %14, label %15, label %22

15:                                               ; preds = %11
  %16 = and i64 %12, 2147483647
  %17 = getelementptr inbounds nuw i8, ptr %0, i64 %16
  %18 = getelementptr inbounds i8, ptr %17, i64 -2
  %19 = call i32 @strtoint(ptr noundef nonnull %18, ptr noundef nonnull %3, i32 noundef 10) #17
  %or.cond = icmp ugt i32 %19, 59
  br i1 %or.cond, label %34, label %20

20:                                               ; preds = %15
  store i8 0, ptr %18, align 1
  %21 = call i32 @strtoint(ptr noundef nonnull %4, ptr noundef nonnull %3, i32 noundef 10) #17
  %or.cond3 = icmp ugt i32 %21, 13
  br i1 %or.cond3, label %34, label %22

22:                                               ; preds = %11, %2, %20, %8
  %.021 = phi i32 [ %5, %8 ], [ %21, %20 ], [ %5, %2 ], [ %5, %11 ]
  %.020 = phi i32 [ %10, %8 ], [ %19, %20 ], [ 0, %2 ], [ 0, %11 ]
  %23 = mul i32 %.021, 60
  %24 = add i32 %23, %.020
  %25 = mul i32 %24, 60
  %26 = load i8, ptr %0, align 1
  %27 = icmp eq i8 %26, 45
  %28 = sub i32 0, %25
  %29 = select i1 %27, i32 %25, i32 %28
  store i32 %29, ptr %1, align 4
  %30 = load ptr, ptr %3, align 8
  %31 = load i8, ptr %30, align 1
  %32 = icmp ne i8 %31, 0
  %33 = zext i1 %32 to i32
  br label %34

34:                                               ; preds = %20, %15, %22
  %.0 = phi i32 [ %33, %22 ], [ -1, %15 ], [ -1, %20 ]
  call void @llvm.lifetime.end.p0(i64 8, ptr nonnull %3) #17
  ret i32 %.0
}